target datalayout = "e-m:e-p270:32:32-p271:32:32-p272:64:64-i64:64-i128:128-f80:128-n8:16:32:64-S128"
target triple = "x86_64-pc-linux-gnu"

%struct.Nwk_Obj_t_ = type { ptr, ptr, ptr, %union.anon, i32, i32, i32, i32, float, float, float, i32, i32, i32, ptr }
%union.anon = type { ptr }

; Function Attrs: nounwind uwtable
define i32 @Nwk_NodeCompareLevelsDecrease(ptr noundef %0, ptr noundef %1) #0 {
  %3 = alloca i32, align 4
  %4 = alloca ptr, align 8
  %5 = alloca ptr, align 8
  %6 = alloca i32, align 4
  %7 = alloca i32, align 4
  store ptr %0, ptr %4, align 8, !tbaa !45
  store ptr %1, ptr %5, align 8, !tbaa !45
  call void @llvm.lifetime.start.p0(i64 4, ptr %6) #9
  %8 = load ptr, ptr %4, align 8, !tbaa !45
  %9 = load ptr, ptr %8, align 8, !tbaa !19
  %10 = getelementptr inbounds nuw %struct.Nwk_Obj_t_, ptr %9, i32 0, i32 7
  %11 = load i32, ptr %10, align 4, !tbaa !46
  %12 = load ptr, ptr %5, align 8, !tbaa !45
  %13 = load ptr, ptr %12, align 8, !tbaa !19
  %14 = getelementptr inbounds nuw %struct.Nwk_Obj_t_, ptr %13, i32 0, i32 7
  %15 = load i32, ptr %14, align 4, !tbaa !46
  %16 = sub nsw i32 %11, %15
  store i32 %16, ptr %6, align 4, !tbaa !17
  %17 = load i32, ptr %6, align 4, !tbaa !17
  %18 = icmp sgt i32 %17, 0
  br i1 %18, label %19, label %20

19:                                               ; preds = %2
  store i32 -1, ptr %3, align 4
  store i32 1, ptr %7, align 4
  br label %25

20:                                               ; preds = %2
  %21 = load i32, ptr %6, align 4, !tbaa !17
  %22 = icmp slt i32 %21, 0
  br i1 %22, label %23, label %24

23:                                               ; preds = %20
  store i32 1, ptr %3, align 4
  store i32 1, ptr %7, align 4
  br label %25

24:                                               ; preds = %20
  store i32 0, ptr %3, align 4
  store i32 1, ptr %7, align 4
  br label %25

25:                                               ; preds = %24, %23, %19
  call void @llvm.lifetime.end.p0(i64 4, ptr %6) #9
  %26 = load i32, ptr %3, align 4
  ret i32 %26
}