; Function Attrs: mustprogress nofree norecurse nosync nounwind willreturn memory(read, inaccessiblemem: none) uwtable
define range(i32 -1, 2) i32 @Nwk_NodeCompareLevelsDecrease(ptr noundef readonly captures(none) %0, ptr noundef readonly captures(none) %1) local_unnamed_addr #6 {
  %3 = load ptr, ptr %0, align 8, !tbaa !40
  %4 = getelementptr inbounds nuw i8, ptr %3, i64 44
  %5 = load i32, ptr %4, align 4, !tbaa !42
  %6 = load ptr, ptr %1, align 8, !tbaa !40
  %7 = getelementptr inbounds nuw i8, ptr %6, i64 44
  %8 = load i32, ptr %7, align 4, !tbaa !42
  %9 = sub nsw i32 %5, %8
  %10 = icmp sgt i32 %9, 0
  %.lobit = lshr i32 %9, 31
  %.0 = select i1 %10, i32 -1, i32 %.lobit
  ret i32 %.0
}